target datalayout = "e-m:e-p270:32:32-p271:32:32-p272:64:64-i64:64-i128:128-f80:128-n8:16:32:64-S128"
target triple = "x86_64-pc-linux-gnu"

@.str.5 = private unnamed_addr constant [7 x i8] c"device\00", align 1
@.str.6 = private unnamed_addr constant [101 x i8] c"/home/dtcxzyw/WorkSpace/Projects/compilers/llvm-opt-benchmark/bench/qemu/qemu/include/hw/qdev-core.h\00", align 1
@__func__.DEVICE = private unnamed_addr constant [7 x i8] c"DEVICE\00", align 1

; Function Attrs: inlinehint nounwind sspstrong uwtable
define internal ptr @DEVICE(ptr noundef %0) #3 {
  %2 = alloca ptr, align 8
  store ptr %0, ptr %2, align 8
  %3 = load ptr, ptr %2, align 8
  %4 = call ptr @object_dynamic_cast_assert(ptr noundef %3, ptr noundef @.str.5, ptr noundef @.str.6, i32 noundef 77, ptr noundef @__func__.DEVICE)
  ret ptr %4
}

; Function Attrs: nounwind sspstrong uwtable
define dso_local ptr @cpu_create(ptr noundef %0) #0 {
  %2 = alloca ptr, align 8
  %3 = alloca ptr, align 8
  %4 = alloca ptr, align 8
  store ptr %0, ptr %2, align 8
  call void @llvm.lifetime.start.p0(i64 8, ptr %3) #13
  store ptr null, ptr %3, align 8
  call void @llvm.lifetime.start.p0(i64 8, ptr %4) #13
  %5 = load ptr, ptr %2, align 8
  %6 = call ptr @object_new(ptr noundef %5)
  store ptr %6, ptr %4, align 8
  %7 = load ptr, ptr %4, align 8
  %8 = call ptr @DEVICE(ptr noundef %7)
  %9 = call zeroext i1 @qdev_realize(ptr noundef %8, ptr noundef null, ptr noundef %3)
  br i1 %9, label %13, label %10

10:                                               ; preds = %1
  %11 = load ptr, ptr %3, align 8
  call void @error_report_err(ptr noundef %11)
  %12 = load ptr, ptr %4, align 8
  call void @object_unref(ptr noundef %12)
  call void @exit(i32 noundef 1) #15
  unreachable

13:                                               ; preds = %1
  %14 = load ptr, ptr %4, align 8
  call void @llvm.lifetime.end.p0(i64 8, ptr %4) #13
  call void @llvm.lifetime.end.p0(i64 8, ptr %3) #13
  ret ptr %14
}