; Function Attrs: nounwind sspstrong uwtable
define dso_local noundef ptr @cpu_create(ptr noundef %0) local_unnamed_addr #0 {
  %2 = alloca ptr, align 8
  call void @llvm.lifetime.start.p0(i64 8, ptr nonnull %2) #12
  store ptr null, ptr %2, align 8
  %3 = tail call ptr @object_new(ptr noundef %0) #12
  %4 = tail call ptr @object_dynamic_cast_assert(ptr noundef %3, ptr noundef nonnull @.str.5, ptr noundef nonnull @.str.6, i32 noundef 77, ptr noundef nonnull @__func__.DEVICE) #12
  %5 = call zeroext i1 @qdev_realize(ptr noundef %4, ptr noundef null, ptr noundef nonnull %2) #12
  br i1 %5, label %8, label %6

6:                                                ; preds = %1
  %7 = load ptr, ptr %2, align 8
  call void @error_report_err(ptr noundef %7) #12
  call void @object_unref(ptr noundef %3) #12
  call void @exit(i32 noundef 1) #13
  unreachable

8:                                                ; preds = %1
  call void @llvm.lifetime.end.p0(i64 8, ptr nonnull %2) #12
  ret ptr %3
}